c__builtin__
set
p0
((lp1
V3378062
p2
aV4723373
p3
aV2719048
p4
aV2873964
p5
aV4599933
p6
aV2839339
p7
aV914505
p8
aV769014
p9
aV2832575
p10
aV2410538
p11
aV3206602
p12
aV4370421
p13
aV1340890
p14
aV2879810
p15
aV2879811
p16
aV4215446
p17
aV2737034
p18
aV3580118
p19
aV253032
p20
aV2627754
p21
aV4808109
p22
aV2160222
p23
aV2732488
p24
aV4417721
p25
aV2863451
p26
aV3325003
p27
aV2867472
p28
aV1486703
p29
aV2866352
p30
aV3180025
p31
aV2848205
p32
aV3378055
p33
aS'609301'
p34
aV4819913
p35
aV3327016
p36
aV3321934
p37
aV2848606
p38
aV2727302
p39
aV4309679
p40
aV2713283
p41
aV5153205
p42
aV3986551
p43
aV350828
p44
aV2340117
p45
aV3285975
p46
aV2842558
p47
aV5153819
p48
aV628690
p49
aV2848277
p50
aV3772579
p51
aV2696929
p52
aV3278503
p53
aV3340203
p54
aV2004466
p55
aV3337568
p56
aV4926955
p57
aV2848753
p58
aV3378043
p59
aV3378040
p60
aV3334423
p61
aV2717538
p62
aV2842975
p63
aV329307
p64
aV2729763
p65
aV455484
p66
aV2753865
p67
aV2847597
p68
aV727122
p69
aV3986528
p70
aV2842278
p71
aV2725882
p72
aV2737015
p73
aV5166070
p74
aV3334007
p75
aV2849698
p76
aV3340100
p77
aV2838410
p78
aV3377755
p79
aV2872509
p80
aV2848058
p81
aV2218025
p82
aV2847838
p83
aV3179908
p84
aV3333344
p85
aV2848032
p86
aV2848745
p87
aV2847927
p88
aV2828683
p89
aV4816697
p90
aV3276647
p91
aV306450
p92
aS'2193993'
p93
aV3378039
p94
aV3378038
p95
aV4219627
p96
aV1835120
p97
aV3320857
p98
aV3282422
p99
aV2793866
p100
aV2861200
p101
aV4218655
p102
aS'3443289'
p103
aV3285225
p104
aV3324625
p105
aV3343246
p106
aV351741
p107
aV3996084
p108
aV4311232
p109
aV4808249
p110
aV3278325
p111
aV2847934
p112
aV3343249
p113
aV4489156
p114
aV3323713
p115
aV4482428
p116
aV4223014
p117
aV3782344
p118
aV4808150
p119
aV3337376
p120
aV2863186
p121
aV4368968
p122
aV4808099
p123
aV2848639
p124
aV3337577
p125
aV3320863
p126
aV3337573
p127
aV3337572
p128
aV4220042
p129
aV255939
p130
aV4598714
p131
aV2729621
p132
aV4489137
p133
aV5114609
p134
aV2853838
p135
aV2592787
p136
aV2839363
p137
aS'4311182'
p138
aV3334411
p139
aV4814606
p140
aV2467160
p141
aV2860676
p142
aV2850747
p143
aV3331920
p144
aV4369646
p145
aV4558126
p146
aV2432860
p147
aV2847903
p148
aV2717752
p149
aV2854555
p150
aV2718229
p151
aV2850141
p152
aV2850143
p153
aV5165604
p154
aV2850596
p155
aV4808151
p156
aV329122
p157
aV3285777
p158
aV2688438
p159
aV4810687
p160
aV3988542
p161
aV2798344
p162
aV3378098
p163
aV2839762
p164
aV2839918
p165
aV4810688
p166
aV2634387
p167
aV5004733
p168
aV4309875
p169
aV2847839
p170
aV4810285
p171
aV2872453
p172
aV2847834
p173
aV4768129
p174
aV4219823
p175
aV3334467
p176
aV2838203
p177
aV4489138
p178
aV2796754
p179
aV4099263
p180
aV2729575
p181
aV2839358
p182
aV2677852
p183
aV2844129
p184
aV3337553
p185
aV3320897
p186
aV262373
p187
aV4223281
p188
aV2741351
p189
aV2850748
p190
aV2708906
p191
aV1996086
p192
aV4598534
p193
aV3339727
p194
aV2872448
p195
aV2872449
p196
aV2849556
p197
aV1684371
p198
aV3180586
p199
aV2863450
p200
aV3278371
p201
aV2879782
p202
aV2682053
p203
aV3275698
p204
aV2847826
p205
aV2847824
p206
aV2849931
p207
aV3337581
p208
aV2737919
p209
aV3378051
p210
aV2874984
p211
aV2847841
p212
aV3324120
p213
aV5161565
p214
aV843259
p215
aV2768223
p216
aV3986518
p217
aV2842559
p218
aV2793821
p219
aV4309440
p220
aV3414168
p221
aV2848499
p222
aV3329517
p223
aV2686878
p224
aV2839368
p225
aV3772598
p226
aV3414166
p227
aV2849017
p228
aV3567124
p229
atp230
Rp231
.